target datalayout = "e-m:e-p270:32:32-p271:32:32-p272:64:64-i64:64-i128:128-f80:128-n8:16:32:64-S128"
target triple = "x86_64-pc-linux-gnu"

%struct.MpegEncContext = type { ptr, i32, i32, i32, [12 x i32], i32, %struct.ScanTable, %struct.ScanTable, [64 x i8], [64 x i8], ptr, ptr, i32, i32, i32, i32, i32, i32, i32, i32, i32, i32, i32, i32, i32, i32, i32, i32, i32, i32, i32, i32, i64, i64, ptr, %struct.BufferPoolContext, i32, i32, %union.anon, i32, %struct.MPVWorkPicture, %struct.MPVWorkPicture, %struct.MPVWorkPicture, i32, [3 x i32], ptr, [3 x ptr], ptr, ptr, ptr, ptr, ptr, ptr, [3 x ptr], i32, ptr, ptr, ptr, ptr, %struct.ScratchpadContext, i32, i32, i32, i32, i32, i32, %struct.BlockDSPContext, %struct.H264ChromaContext, %struct.HpelDSPContext, %struct.IDCTDSPContext, %struct.QpelDSPContext, %struct.VideoDSPContext, %struct.H263DSPContext, ptr, [2 x [2 x ptr]], i32, i32, [2 x [4 x [2 x i32]]], [2 x [2 x i32]], [2 x [2 x [2 x i32]]], [2 x [64 x i16]], i32, i32, i32, i32, i32, [6 x i32], [6 x i32], [3 x ptr], ptr, [64 x i16], [64 x i16], [64 x i16], [64 x i16], i32, i32, %struct.GetBitContext, i32, i32, i32, i32, i32, i32, i32, i32, i32, i32, i32, i32, i32, i32, i32, i64, i64, i16, i16, i16, i16, i32, i32, i32, i32, i32, i32, i32, i32, i32, [3 x i32], i32, i32, i32, i32, i32, i32, %struct.GetBitContext, i32, [2 x [2 x i32]], i32, i32, i32, i32, i32, i32, i32, i32, i32, i32, i32, i32, i32, i32, [2 x i32], i32, i32, ptr, ptr, ptr, ptr, ptr, i32, i32, %struct.ERContext }
%struct.ScanTable = type { ptr, [64 x i8], [64 x i8] }
%struct.BufferPoolContext = type { ptr, ptr, ptr, ptr, ptr, i32, i32, i32 }
%union.anon = type { [32 x ptr] }
%struct.MPVWorkPicture = type { [3 x ptr], [3 x i64], ptr, ptr, [2 x ptr], ptr, ptr, [2 x ptr], i32 }
%struct.ScratchpadContext = type { ptr, ptr, %union.anon.0, i32 }
%union.anon.0 = type { ptr }
%struct.BlockDSPContext = type { ptr, ptr, [2 x ptr] }
%struct.H264ChromaContext = type { [4 x ptr], [4 x ptr] }
%struct.HpelDSPContext = type { [4 x [4 x ptr]], [4 x [4 x ptr]], [4 x [4 x ptr]], [4 x ptr] }
%struct.IDCTDSPContext = type { ptr, ptr, ptr, ptr, ptr, ptr, [64 x i8], i32, i32 }
%struct.QpelDSPContext = type { [2 x [16 x ptr]], [2 x [16 x ptr]], [2 x [16 x ptr]] }
%struct.VideoDSPContext = type { ptr, ptr }
%struct.H263DSPContext = type { ptr, ptr }
%struct.GetBitContext = type { ptr, ptr, i32, i32, i32 }
%struct.ERContext = type { ptr, ptr, i32, ptr, i32, i32, i32, i64, i64, i32, i32, ptr, ptr, [3 x ptr], ptr, ptr, [2 x [4 x [2 x i32]]], %struct.ERPicture, %struct.ERPicture, %struct.ERPicture, [2 x ptr], [2 x ptr], i16, i16, i32, i32, ptr, ptr }
%struct.ERPicture = type { ptr, ptr, ptr, [2 x ptr], [2 x ptr], ptr, i32 }
%struct.MPVPicture = type { ptr, ptr, ptr, [2 x ptr], [2 x ptr], ptr, ptr, ptr, [2 x ptr], ptr, i32, i32, i32, i32, i32, i32, i32, i32, i32, i32, %struct.ThreadProgress }
%struct.ThreadProgress = type { i32, i32, %union.pthread_mutex_t, %union.pthread_cond_t }
%union.pthread_mutex_t = type { %struct.__pthread_mutex_s }
%struct.__pthread_mutex_s = type { i32, i32, i32, i32, i32, i16, i16, %struct.__pthread_internal_list }
%struct.__pthread_internal_list = type { ptr, ptr }
%union.pthread_cond_t = type { %struct.__pthread_cond_s }
%struct.__pthread_cond_s = type { %union.__atomic_wide_counter, %union.__atomic_wide_counter, [2 x i32], [2 x i32], i32, i32, [2 x i32] }
%union.__atomic_wide_counter = type { i64 }

; Function Attrs: nounwind uwtable
define void @ff_mpv_frame_end(ptr noundef %0) #3 {
  %2 = alloca ptr, align 8
  store ptr %0, ptr %2, align 8, !tbaa !4
  br label %3

3:                                                ; preds = %1
  br label %4

4:                                                ; preds = %3
  %5 = load ptr, ptr %2, align 8, !tbaa !4
  %6 = getelementptr inbounds nuw %struct.MpegEncContext, ptr %5, i32 0, i32 42
  %7 = getelementptr inbounds nuw %struct.MPVWorkPicture, ptr %6, i32 0, i32 8
  %8 = load i32, ptr %7, align 8, !tbaa !124
  %9 = icmp ne i32 %8, 0
  br i1 %9, label %10, label %16

10:                                               ; preds = %4
  %11 = load ptr, ptr %2, align 8, !tbaa !4
  %12 = getelementptr inbounds nuw %struct.MpegEncContext, ptr %11, i32 0, i32 42
  %13 = getelementptr inbounds nuw %struct.MPVWorkPicture, ptr %12, i32 0, i32 2
  %14 = load ptr, ptr %13, align 8, !tbaa !112
  %15 = getelementptr inbounds nuw %struct.MPVPicture, ptr %14, i32 0, i32 20
  call void @ff_thread_progress_report(ptr noundef %15, i32 noundef 2147483647)
  br label %16

16:                                               ; preds = %10, %4
  ret void
}