; Function Attrs: nounwind uwtable
define void @ff_mpv_frame_end(ptr noundef readonly captures(none) %0) local_unnamed_addr #3 {
  %2 = getelementptr inbounds nuw i8, ptr %0, i64 1272
  %3 = load i32, ptr %2, align 8, !tbaa !115
  %.not = icmp eq i32 %3, 0
  br i1 %.not, label %8, label %4

4:                                                ; preds = %1
  %5 = getelementptr inbounds nuw i8, ptr %0, i64 1208
  %6 = load ptr, ptr %5, align 8, !tbaa !103
  %7 = getelementptr inbounds nuw i8, ptr %6, i64 144
  tail call void @ff_thread_progress_report(ptr noundef nonnull %7, i32 noundef 2147483647) #10
  br label %8

8:                                                ; preds = %4, %1
  ret void
}